; Function Attrs: mustprogress nounwind uwtable
define hidden void @_ZN5ceres8internal33GradientCheckingIterationCallbackC2Ev(ptr noundef nonnull align 8 dereferenceable(88) %0) unnamed_addr #0 align 2 {
  store ptr getelementptr inbounds ({ [5 x ptr] }, ptr @_ZTVN5ceres8internal33GradientCheckingIterationCallbackE, i64 0, i32 0, i64 2), ptr %0, align 8
  %2 = getelementptr inbounds i8, ptr %0, i64 8
  store i8 0, ptr %2, align 8
  %3 = getelementptr inbounds i8, ptr %0, i64 16
  tail call void @_ZNSt7__cxx1112basic_stringIcSt11char_traitsIcESaIcEEC1Ev(ptr noundef nonnull align 8 dereferenceable(32) %3) #17
  %4 = getelementptr inbounds i8, ptr %0, i64 48
  tail call void @llvm.memset.p0.i64(ptr noundef nonnull align 8 dereferenceable(40) %4, i8 0, i64 40, i1 false)
  ret void
}